target datalayout = "e-m:e-p270:32:32-p271:32:32-p272:64:64-i64:64-i128:128-f80:128-n8:16:32:64-S128"
target triple = "x86_64-pc-linux-gnu"

%struct.hwloc_calc_location_context_s = type { ptr, i32, i32, i32, i32 }

@.str.124 = private unnamed_addr constant [11 x i8] c"0123456789\00", align 1
@.str.127 = private unnamed_addr constant [5 x i8] c":=.[\00", align 1

; Function Attrs: inlinehint nounwind uwtable
define internal i64 @hwloc_calc_parse_level_size(ptr noundef %0) #4 {
  %2 = alloca i64, align 8
  %3 = alloca ptr, align 8
  %4 = alloca i64, align 8
  %5 = alloca ptr, align 8
  %6 = alloca i32, align 4
  store ptr %0, ptr %3, align 8, !tbaa !4
  call void @llvm.lifetime.start.p0(i64 8, ptr %4) #11
  call void @llvm.lifetime.start.p0(i64 8, ptr %5) #11
  %7 = load ptr, ptr %3, align 8, !tbaa !4
  %8 = call i64 @strcspn(ptr noundef %7, ptr noundef @.str.127) #12
  store i64 %8, ptr %4, align 8, !tbaa !21
  %9 = load ptr, ptr %3, align 8, !tbaa !4
  %10 = load i64, ptr %4, align 8, !tbaa !21
  %11 = getelementptr inbounds nuw i8, ptr %9, i64 %10
  %12 = load i8, ptr %11, align 1, !tbaa !15
  %13 = sext i8 %12 to i32
  %14 = icmp ne i32 %13, 91
  br i1 %14, label %15, label %17

15:                                               ; preds = %1
  %16 = load i64, ptr %4, align 8, !tbaa !21
  store i64 %16, ptr %2, align 8
  store i32 1, ptr %6, align 4
  br label %32

17:                                               ; preds = %1
  %18 = load ptr, ptr %3, align 8, !tbaa !4
  %19 = load i64, ptr %4, align 8, !tbaa !21
  %20 = getelementptr inbounds nuw i8, ptr %18, i64 %19
  %21 = call ptr @strchr(ptr noundef %20, i32 noundef 93) #12
  store ptr %21, ptr %5, align 8, !tbaa !4
  %22 = load ptr, ptr %5, align 8, !tbaa !4
  %23 = icmp ne ptr %22, null
  br i1 %23, label %25, label %24

24:                                               ; preds = %17
  store i64 0, ptr %2, align 8
  store i32 1, ptr %6, align 4
  br label %32

25:                                               ; preds = %17
  %26 = load ptr, ptr %5, align 8, !tbaa !4
  %27 = getelementptr inbounds i8, ptr %26, i64 1
  %28 = load ptr, ptr %3, align 8, !tbaa !4
  %29 = ptrtoint ptr %27 to i64
  %30 = ptrtoint ptr %28 to i64
  %31 = sub i64 %29, %30
  store i64 %31, ptr %2, align 8
  store i32 1, ptr %6, align 4
  br label %32

32:                                               ; preds = %25, %24, %15
  call void @llvm.lifetime.end.p0(i64 8, ptr %5) #11
  call void @llvm.lifetime.end.p0(i64 8, ptr %4) #11
  %33 = load i64, ptr %2, align 8
  ret i64 %33
}

; Function Attrs: nounwind uwtable
define internal ptr @get_unique_obj(ptr noundef %0, i32 noundef %1, ptr noundef %2, ptr noundef %3) #0 {
  %5 = alloca ptr, align 8
  %6 = alloca ptr, align 8
  %7 = alloca i32, align 4
  %8 = alloca ptr, align 8
  %9 = alloca ptr, align 8
  %10 = alloca %struct.hwloc_calc_location_context_s, align 8
  %11 = alloca ptr, align 8
  %12 = alloca i64, align 8
  %13 = alloca i64, align 8
  %14 = alloca i32, align 4
  %15 = alloca i32, align 4
  store ptr %0, ptr %6, align 8, !tbaa !25
  store i32 %1, ptr %7, align 4, !tbaa !11
  store ptr %2, ptr %8, align 8, !tbaa !4
  store ptr %3, ptr %9, align 8, !tbaa !80
  call void @llvm.lifetime.start.p0(i64 24, ptr %10) #11
  call void @llvm.lifetime.start.p0(i64 8, ptr %11) #11
  call void @llvm.lifetime.start.p0(i64 8, ptr %12) #11
  call void @llvm.lifetime.start.p0(i64 8, ptr %13) #11
  call void @llvm.lifetime.start.p0(i64 4, ptr %14) #11
  %16 = load ptr, ptr %8, align 8, !tbaa !4
  %17 = call i64 @hwloc_calc_parse_level_size(ptr noundef %16)
  store i64 %17, ptr %13, align 8, !tbaa !21
  %18 = load i64, ptr %13, align 8, !tbaa !21
  %19 = icmp ne i64 %18, 0
  br i1 %19, label %20, label %34

20:                                               ; preds = %4
  %21 = load ptr, ptr %8, align 8, !tbaa !4
  %22 = load i64, ptr %13, align 8, !tbaa !21
  %23 = getelementptr inbounds nuw i8, ptr %21, i64 %22
  %24 = load i8, ptr %23, align 1, !tbaa !15
  %25 = sext i8 %24 to i32
  %26 = icmp ne i32 %25, 58
  br i1 %26, label %27, label %35

27:                                               ; preds = %20
  %28 = load ptr, ptr %8, align 8, !tbaa !4
  %29 = load i64, ptr %13, align 8, !tbaa !21
  %30 = getelementptr inbounds nuw i8, ptr %28, i64 %29
  %31 = load i8, ptr %30, align 1, !tbaa !15
  %32 = sext i8 %31 to i32
  %33 = icmp ne i32 %32, 61
  br i1 %33, label %34, label %35

34:                                               ; preds = %27, %4
  store ptr null, ptr %5, align 8
  store i32 1, ptr %15, align 4
  br label %80

35:                                               ; preds = %27, %20
  %36 = load ptr, ptr %6, align 8, !tbaa !25
  %37 = getelementptr inbounds nuw %struct.hwloc_calc_location_context_s, ptr %10, i32 0, i32 0
  store ptr %36, ptr %37, align 8, !tbaa !39
  %38 = load i32, ptr %7, align 4, !tbaa !11
  %39 = getelementptr inbounds nuw %struct.hwloc_calc_location_context_s, ptr %10, i32 0, i32 1
  store i32 %38, ptr %39, align 8, !tbaa !41
  %40 = getelementptr inbounds nuw %struct.hwloc_calc_location_context_s, ptr %10, i32 0, i32 2
  store i32 -1, ptr %40, align 4, !tbaa !42
  %41 = getelementptr inbounds nuw %struct.hwloc_calc_location_context_s, ptr %10, i32 0, i32 3
  store i32 1, ptr %41, align 8, !tbaa !43
  %42 = getelementptr inbounds nuw %struct.hwloc_calc_location_context_s, ptr %10, i32 0, i32 4
  store i32 0, ptr %42, align 4, !tbaa !44
  store ptr null, ptr %11, align 8, !tbaa !35
  %43 = load ptr, ptr %8, align 8, !tbaa !4
  %44 = load i64, ptr %13, align 8, !tbaa !21
  %45 = getelementptr inbounds nuw i8, ptr %43, i64 %44
  %46 = getelementptr inbounds i8, ptr %45, i64 1
  %47 = call i64 @strspn(ptr noundef %46, ptr noundef @.str.124) #12
  store i64 %47, ptr %12, align 8, !tbaa !21
  %48 = load ptr, ptr %8, align 8, !tbaa !4
  %49 = load i64, ptr %13, align 8, !tbaa !21
  %50 = add i64 %49, 1
  %51 = load i64, ptr %12, align 8, !tbaa !21
  %52 = add i64 %50, %51
  %53 = getelementptr inbounds nuw i8, ptr %48, i64 %52
  %54 = load i8, ptr %53, align 1, !tbaa !15
  %55 = sext i8 %54 to i32
  %56 = icmp eq i32 %55, 45
  br i1 %56, label %67, label %57

57:                                               ; preds = %35
  %58 = load ptr, ptr %8, align 8, !tbaa !4
  %59 = load i64, ptr %13, align 8, !tbaa !21
  %60 = add i64 %59, 1
  %61 = load i64, ptr %12, align 8, !tbaa !21
  %62 = add i64 %60, %61
  %63 = getelementptr inbounds nuw i8, ptr %58, i64 %62
  %64 = load i8, ptr %63, align 1, !tbaa !15
  %65 = sext i8 %64 to i32
  %66 = icmp eq i32 %65, 58
  br i1 %66, label %67, label %69

67:                                               ; preds = %57, %35
  %68 = load ptr, ptr %9, align 8, !tbaa !80
  store i32 1, ptr %68, align 4, !tbaa !11
  br label %71

69:                                               ; preds = %57
  %70 = load ptr, ptr %9, align 8, !tbaa !80
  store i32 0, ptr %70, align 4, !tbaa !11
  br label %71

71:                                               ; preds = %69, %67
  %72 = load ptr, ptr %8, align 8, !tbaa !4
  %73 = load i64, ptr %13, align 8, !tbaa !21
  %74 = call i32 @hwloc_calc_process_location(ptr noundef %10, ptr noundef %72, i64 noundef %73, ptr noundef @hwloc_calc_get_unique_obj_cb, ptr noundef %11)
  store i32 %74, ptr %14, align 4, !tbaa !11
  %75 = load i32, ptr %14, align 4, !tbaa !11
  %76 = icmp slt i32 %75, 0
  br i1 %76, label %77, label %78

77:                                               ; preds = %71
  store ptr null, ptr %5, align 8
  store i32 1, ptr %15, align 4
  br label %80

78:                                               ; preds = %71
  %79 = load ptr, ptr %11, align 8, !tbaa !35
  store ptr %79, ptr %5, align 8
  store i32 1, ptr %15, align 4
  br label %80

80:                                               ; preds = %78, %77, %34
  call void @llvm.lifetime.end.p0(i64 4, ptr %14) #11
  call void @llvm.lifetime.end.p0(i64 8, ptr %13) #11
  call void @llvm.lifetime.end.p0(i64 8, ptr %12) #11
  call void @llvm.lifetime.end.p0(i64 8, ptr %11) #11
  call void @llvm.lifetime.end.p0(i64 24, ptr %10) #11
  %81 = load ptr, ptr %5, align 8
  ret ptr %81
}