; Function Attrs: nounwind uwtable
define internal fastcc ptr @get_unique_obj(ptr noundef %0, i32 noundef %1, ptr noundef %2, ptr noundef nonnull writeonly captures(none) %3) unnamed_addr #13 {
  %5 = alloca %struct.hwloc_calc_location_context_s, align 8
  %6 = alloca ptr, align 8
  call void @llvm.lifetime.start.p0(i64 24, ptr nonnull %5) #27
  call void @llvm.lifetime.start.p0(i64 8, ptr nonnull %6) #27
  %7 = tail call i64 @strcspn(ptr noundef %2, ptr noundef nonnull @.str.127) #28
  %8 = getelementptr inbounds nuw i8, ptr %2, i64 %7
  %9 = load i8, ptr %8, align 1, !tbaa !11
  %.not.i = icmp eq i8 %9, 91
  br i1 %.not.i, label %10, label %hwloc_calc_parse_level_size.exit

10:                                               ; preds = %4
  %11 = tail call ptr @strchr(ptr noundef nonnull dereferenceable(1) %8, i32 noundef 93) #28
  %.not10.i = icmp eq ptr %11, null
  br i1 %.not10.i, label %hwloc_calc_parse_level_size.exit.thread, label %12

12:                                               ; preds = %10
  %13 = getelementptr inbounds nuw i8, ptr %11, i64 1
  %14 = ptrtoint ptr %13 to i64
  %15 = ptrtoint ptr %2 to i64
  %16 = sub i64 %14, %15
  br label %hwloc_calc_parse_level_size.exit

hwloc_calc_parse_level_size.exit:                 ; preds = %4, %12
  %.0.i = phi i64 [ %16, %12 ], [ %7, %4 ]
  %.not = icmp eq i64 %.0.i, 0
  br i1 %.not, label %hwloc_calc_parse_level_size.exit.thread, label %17

17:                                               ; preds = %hwloc_calc_parse_level_size.exit
  %18 = getelementptr inbounds nuw i8, ptr %2, i64 %.0.i
  %19 = load i8, ptr %18, align 1, !tbaa !11
  switch i8 %19, label %hwloc_calc_parse_level_size.exit.thread [
    i8 58, label %20
    i8 61, label %20
  ]

20:                                               ; preds = %17, %17
  store ptr %0, ptr %5, align 8, !tbaa !37
  %21 = getelementptr inbounds nuw i8, ptr %5, i64 8
  store i32 %1, ptr %21, align 8, !tbaa !39
  %22 = getelementptr inbounds nuw i8, ptr %5, i64 12
  store i32 -1, ptr %22, align 4, !tbaa !40
  %23 = getelementptr inbounds nuw i8, ptr %5, i64 16
  store i32 1, ptr %23, align 8, !tbaa !41
  %24 = getelementptr inbounds nuw i8, ptr %5, i64 20
  store i32 0, ptr %24, align 4, !tbaa !42
  store ptr null, ptr %6, align 8, !tbaa !33
  %25 = getelementptr inbounds nuw i8, ptr %18, i64 1
  %26 = tail call i64 @strspn(ptr noundef nonnull %25, ptr noundef nonnull @.str.124) #28
  %27 = getelementptr i8, ptr %25, i64 %26
  %28 = load i8, ptr %27, align 1, !tbaa !11
  %switch.selectcmp.case1 = icmp eq i8 %28, 45
  %switch.selectcmp.case2 = icmp eq i8 %28, 58
  %switch.selectcmp = or i1 %switch.selectcmp.case1, %switch.selectcmp.case2
  %29 = zext i1 %switch.selectcmp to i32
  store i32 %29, ptr %3, align 4, !tbaa !21
  %30 = call fastcc i32 @hwloc_calc_process_location(ptr noundef %5, ptr noundef nonnull %2, i64 noundef %.0.i, ptr noundef nonnull @hwloc_calc_get_unique_obj_cb, ptr noundef nonnull %6)
  %31 = icmp slt i32 %30, 0
  %32 = load ptr, ptr %6, align 8
  %spec.select = select i1 %31, ptr null, ptr %32
  br label %hwloc_calc_parse_level_size.exit.thread

hwloc_calc_parse_level_size.exit.thread:          ; preds = %10, %20, %hwloc_calc_parse_level_size.exit, %17
  %.0 = phi ptr [ null, %17 ], [ null, %hwloc_calc_parse_level_size.exit ], [ %spec.select, %20 ], [ null, %10 ]
  call void @llvm.lifetime.end.p0(i64 8, ptr nonnull %6) #27
  call void @llvm.lifetime.end.p0(i64 24, ptr nonnull %5) #27
  ret ptr %.0
}